; ModuleID = '49/405.c'
source_filename = "49/405.c"
target datalayout = "e-m:e-p270:32:32-p271:32:32-p272:64:64-i64:64-f80:128-n8:16:32:64-S128"
target triple = "x86_64-pc-linux-gnu"

@str = common dso_local global [501 x i8] zeroinitializer, align 16
@l = common dso_local global i32 0, align 4
@i = common dso_local global i32 0, align 4
@.str = private unnamed_addr constant [3 x i8] c"%c\00", align 1
@.str.1 = private unnamed_addr constant [2 x i8] c"\0A\00", align 1

; Function Attrs: noinline nounwind uwtable
define dso_local i32 @main() #0 {
  %1 = alloca i32, align 4
  %2 = alloca i32, align 4
  store i32 0, i32* %1, align 4
  %3 = call i32 (i8*, ...) bitcast (i32 (...)* @gets to i32 (i8*, ...)*)(i8* getelementptr inbounds ([501 x i8], [501 x i8]* @str, i64 0, i64 0))
  %4 = call i64 @strlen(i8* getelementptr inbounds ([501 x i8], [501 x i8]* @str, i64 0, i64 0)) #3
  %5 = trunc i64 %4 to i32
  store i32 %5, i32* %2, align 4
  store i32 2, i32* @l, align 4
  br label %6

6:                                                ; preds = %32, %0
  %7 = load i32, i32* @l, align 4
  %8 = load i32, i32* %2, align 4
  %9 = sub nsw i32 %8, 1
  %10 = icmp sle i32 %7, %9
  br i1 %10, label %11, label %35

11:                                               ; preds = %6
  store i32 0, i32* @i, align 4
  br label %12

12:                                               ; preds = %28, %11
  %13 = load i32, i32* @i, align 4
  %14 = load i32, i32* %2, align 4
  %15 = sub nsw i32 %14, 2
  %16 = icmp sle i32 %13, %15
  br i1 %16, label %17, label %31

17:                                               ; preds = %12
  %18 = load i32, i32* @i, align 4
  %19 = load i32, i32* @l, align 4
  %20 = add nsw i32 %18, %19
  %21 = sub nsw i32 %20, 1
  %22 = load i32, i32* %2, align 4
  %23 = icmp sle i32 %21, %22
  br i1 %23, label %24, label %27

24:                                               ; preds = %17
  %25 = load i32, i32* @i, align 4
  %26 = load i32, i32* @l, align 4
  call void @f(i32 %25, i32 %26)
  br label %27

27:                                               ; preds = %24, %17
  br label %28

28:                                               ; preds = %27
  %29 = load i32, i32* @i, align 4
  %30 = add nsw i32 %29, 1
  store i32 %30, i32* @i, align 4
  br label %12

31:                                               ; preds = %12
  br label %32

32:                                               ; preds = %31
  %33 = load i32, i32* @l, align 4
  %34 = add nsw i32 %33, 1
  store i32 %34, i32* @l, align 4
  br label %6

35:                                               ; preds = %6
  ret i32 0
}

declare dso_local i32 @gets(...) #1

; Function Attrs: nounwind readonly
declare dso_local i64 @strlen(i8*) #2

; Function Attrs: noinline nounwind uwtable
define dso_local void @f(i32 %0, i32 %1) #0 {
  %3 = alloca i32, align 4
  %4 = alloca i32, align 4
  %5 = alloca i32, align 4
  store i32 %0, i32* %3, align 4
  store i32 %1, i32* %4, align 4
  %6 = load i32, i32* %4, align 4
  %7 = icmp sle i32 %6, 0
  br i1 %7, label %8, label %29

8:                                                ; preds = %2
  %9 = load i32, i32* @i, align 4
  store i32 %9, i32* %5, align 4
  br label %10

10:                                               ; preds = %24, %8
  %11 = load i32, i32* %5, align 4
  %12 = load i32, i32* @i, align 4
  %13 = load i32, i32* @l, align 4
  %14 = add nsw i32 %12, %13
  %15 = sub nsw i32 %14, 1
  %16 = icmp sle i32 %11, %15
  br i1 %16, label %17, label %27

17:                                               ; preds = %10
  %18 = load i32, i32* %5, align 4
  %19 = sext i32 %18 to i64
  %20 = getelementptr inbounds [501 x i8], [501 x i8]* @str, i64 0, i64 %19
  %21 = load i8, i8* %20, align 1
  %22 = sext i8 %21 to i32
  %23 = call i32 (i8*, ...) @printf(i8* getelementptr inbounds ([3 x i8], [3 x i8]* @.str, i64 0, i64 0), i32 %22)
  br label %24

24:                                               ; preds = %17
  %25 = load i32, i32* %5, align 4
  %26 = add nsw i32 %25, 1
  store i32 %26, i32* %5, align 4
  br label %10

27:                                               ; preds = %10
  %28 = call i32 (i8*, ...) @printf(i8* getelementptr inbounds ([2 x i8], [2 x i8]* @.str.1, i64 0, i64 0))
  br label %50

29:                                               ; preds = %2
  %30 = load i32, i32* %3, align 4
  %31 = sext i32 %30 to i64
  %32 = getelementptr inbounds [501 x i8], [501 x i8]* @str, i64 0, i64 %31
  %33 = load i8, i8* %32, align 1
  %34 = sext i8 %33 to i32
  %35 = load i32, i32* %3, align 4
  %36 = load i32, i32* %4, align 4
  %37 = add nsw i32 %35, %36
  %38 = sub nsw i32 %37, 1
  %39 = sext i32 %38 to i64
  %40 = getelementptr inbounds [501 x i8], [501 x i8]* @str, i64 0, i64 %39
  %41 = load i8, i8* %40, align 1
  %42 = sext i8 %41 to i32
  %43 = icmp eq i32 %34, %42
  br i1 %43, label %44, label %49

44:                                               ; preds = %29
  %45 = load i32, i32* %3, align 4
  %46 = add nsw i32 %45, 1
  %47 = load i32, i32* %4, align 4
  %48 = sub nsw i32 %47, 2
  call void @f(i32 %46, i32 %48)
  br label %49

49:                                               ; preds = %44, %29
  br label %50

50:                                               ; preds = %49, %27
  ret void
}

declare dso_local i32 @printf(i8*, ...) #1


!llvm.module.flags = !{!0}
!llvm.ident = !{!1}

!0 = !{i32 1, !"wchar_size", i32 4}
!1 = !{!"clang version 10.0.0-4ubuntu1 "}
